(lp0
S'poi'
p1
aS'exercised_stock_options'
p2
aS'total_payments'
p3
aS'total_stock_value'
p4
aS'allegheni_tfidf'
p5
aS'ascrib_tfidf'
p6
aS'audit_tfidf'
p7
aS'blockbust_tfidf'
p8
aS'blown_tfidf'
p9
aS'keeper_tfidf'
p10
aS'messr_tfidf'
p11
aS'x31770_tfidf'
p12
a.